target datalayout = "e-m:e-p270:32:32-p271:32:32-p272:64:64-i64:64-i128:128-f80:128-n8:16:32:64-S128"
target triple = "x86_64-pc-linux-gnu"

%struct.SDL_GUID = type { [16 x i8] }

@s_zeroGUID = internal global %struct.SDL_GUID zeroinitializer, align 1
@.str.4 = private unnamed_addr constant [26 x i8] c"Parameter '%s' is invalid\00", align 1
@.str.6 = private unnamed_addr constant [12 x i8] c"instance_id\00", align 1
@.str.7 = private unnamed_addr constant [5 x i8] c"*,*,\00", align 1

; Function Attrs: nounwind uwtable
define hidden zeroext i1 @SDL_SetGamepadMapping_REAL(i32 noundef %0, ptr noundef %1) #0 {
  %3 = alloca i1, align 1
  %4 = alloca i32, align 4
  %5 = alloca ptr, align 8
  %6 = alloca %struct.SDL_GUID, align 1
  %7 = alloca i8, align 1
  %8 = alloca i32, align 4
  store i32 %0, ptr %4, align 4
  store ptr %1, ptr %5, align 8
  call void @llvm.lifetime.start.p0(i64 16, ptr %6) #8
  %9 = load i32, ptr %4, align 4
  %10 = call { i64, i64 } @SDL_GetJoystickGUIDForID_REAL(i32 noundef %9)
  %11 = getelementptr inbounds nuw %struct.SDL_GUID, ptr %6, i32 0, i32 0
  %12 = getelementptr inbounds nuw { i64, i64 }, ptr %11, i32 0, i32 0
  %13 = extractvalue { i64, i64 } %10, 0
  store i64 %13, ptr %12, align 1
  %14 = getelementptr inbounds nuw { i64, i64 }, ptr %11, i32 0, i32 1
  %15 = extractvalue { i64, i64 } %10, 1
  store i64 %15, ptr %14, align 1
  call void @llvm.lifetime.start.p0(i64 1, ptr %7) #8
  store i8 0, ptr %7, align 1
  %16 = call i32 @SDL_memcmp_REAL(ptr noundef %6, ptr noundef @s_zeroGUID, i64 noundef 16)
  %17 = icmp eq i32 %16, 0
  br i1 %17, label %18, label %20

18:                                               ; preds = %2
  %19 = call zeroext i1 (ptr, ...) @SDL_SetError_REAL(ptr noundef @.str.4, ptr noundef @.str.6)
  store i1 %19, ptr %3, align 1
  store i32 1, ptr %8, align 4
  br label %36

20:                                               ; preds = %2
  %21 = load ptr, ptr %5, align 8
  %22 = icmp ne ptr %21, null
  br i1 %22, label %24, label %23

23:                                               ; preds = %20
  store ptr @.str.7, ptr %5, align 8
  br label %24

24:                                               ; preds = %23, %20
  call void @SDL_LockJoysticks_REAL()
  %25 = load ptr, ptr %5, align 8
  %26 = getelementptr inbounds nuw { i64, i64 }, ptr %6, i32 0, i32 0
  %27 = load i64, ptr %26, align 1
  %28 = getelementptr inbounds nuw { i64, i64 }, ptr %6, i32 0, i32 1
  %29 = load i64, ptr %28, align 1
  %30 = call ptr @SDL_PrivateAddMappingForGUID(i64 %27, i64 %29, ptr noundef %25, ptr noundef null, i32 noundef 1)
  %31 = icmp ne ptr %30, null
  br i1 %31, label %32, label %33

32:                                               ; preds = %24
  store i8 1, ptr %7, align 1
  br label %33

33:                                               ; preds = %32, %24
  call void @SDL_UnlockJoysticks_REAL()
  %34 = load i8, ptr %7, align 1, !range !3, !noundef !4
  %35 = trunc i8 %34 to i1
  store i1 %35, ptr %3, align 1
  store i32 1, ptr %8, align 4
  br label %36

36:                                               ; preds = %33, %18
  call void @llvm.lifetime.end.p0(i64 1, ptr %7) #8
  call void @llvm.lifetime.end.p0(i64 16, ptr %6) #8
  %37 = load i1, ptr %3, align 1
  ret i1 %37
}