; Function Attrs: nounwind uwtable
define hidden zeroext i1 @SDL_SetGamepadMapping_REAL(i32 noundef %0, ptr noundef %1) local_unnamed_addr #0 {
  %3 = alloca %struct.SDL_GUID, align 8
  call void @llvm.lifetime.start.p0(i64 16, ptr nonnull %3) #10
  %4 = tail call { i64, i64 } @SDL_GetJoystickGUIDForID_REAL(i32 noundef %0) #10
  %5 = extractvalue { i64, i64 } %4, 0
  store i64 %5, ptr %3, align 8
  %6 = getelementptr inbounds nuw i8, ptr %3, i64 8
  %7 = extractvalue { i64, i64 } %4, 1
  store i64 %7, ptr %6, align 8
  %8 = call i32 @SDL_memcmp_REAL(ptr noundef nonnull %3, ptr noundef nonnull @s_zeroGUID, i64 noundef 16) #10
  %9 = icmp eq i32 %8, 0
  br i1 %9, label %10, label %12

10:                                               ; preds = %2
  %11 = call zeroext i1 (ptr, ...) @SDL_SetError_REAL(ptr noundef nonnull @.str.4, ptr noundef nonnull @.str.6) #10
  br label %16

12:                                               ; preds = %2
  %.not = icmp eq ptr %1, null
  %spec.store.select = select i1 %.not, ptr @.str.7, ptr %1
  call void @SDL_LockJoysticks_REAL() #10
  %13 = load i64, ptr %3, align 8
  %14 = load i64, ptr %6, align 8
  %15 = call fastcc ptr @SDL_PrivateAddMappingForGUID(i64 %13, i64 %14, ptr noundef nonnull %spec.store.select, ptr noundef null, i32 noundef 1)
  %.not5 = icmp ne ptr %15, null
  call void @SDL_UnlockJoysticks_REAL() #10
  br label %16

16:                                               ; preds = %12, %10
  %.04 = phi i1 [ %11, %10 ], [ %.not5, %12 ]
  call void @llvm.lifetime.end.p0(i64 16, ptr nonnull %3) #10
  ret i1 %.04
}